target datalayout = "e-m:e-p270:32:32-p271:32:32-p272:64:64-i64:64-i128:128-f80:128-n8:16:32:64-S128"
target triple = "x86_64-pc-linux-gnu"

%struct.PortalData = type { ptr, ptr, ptr, ptr, ptr, i32, i32, i32, ptr, i32, %struct.QueryCompletion, ptr, ptr, ptr, ptr, i32, i32, i32, i8, i8, ptr, ptr, ptr, ptr, ptr, ptr, ptr, i8, i8, i64, i64, i8 }
%struct.QueryCompletion = type { i32, i64 }

@TopPortalContext = internal global ptr null, align 8
@.str.10 = private unnamed_addr constant [18 x i8] c"PortalHoldContext\00", align 1
@work_mem = external global i32, align 4
@CurrentMemoryContext = external global ptr, align 8

; Function Attrs: inlinehint nounwind uwtable
define internal ptr @MemoryContextSwitchTo(ptr noundef %0) #5 {
  %2 = alloca ptr, align 8
  %3 = alloca ptr, align 8
  store ptr %0, ptr %2, align 8
  call void @llvm.lifetime.start.p0(i64 8, ptr %3) #6
  %4 = load ptr, ptr @CurrentMemoryContext, align 8
  store ptr %4, ptr %3, align 8
  %5 = load ptr, ptr %2, align 8
  store ptr %5, ptr @CurrentMemoryContext, align 8
  %6 = load ptr, ptr %3, align 8
  call void @llvm.lifetime.end.p0(i64 8, ptr %3) #6
  ret ptr %6
}

; Function Attrs: nounwind uwtable
define dso_local void @PortalCreateHoldStore(ptr noundef %0) #0 {
  %2 = alloca ptr, align 8
  %3 = alloca ptr, align 8
  %4 = alloca i32, align 4
  store ptr %0, ptr %2, align 8
  call void @llvm.lifetime.start.p0(i64 8, ptr %3) #6
  br label %5

5:                                                ; preds = %1
  br label %6

6:                                                ; preds = %5
  br label %7

7:                                                ; preds = %6
  store i32 1, ptr %4, align 4
  %8 = load ptr, ptr @TopPortalContext, align 8
  %9 = call ptr @AllocSetContextCreateInternal(ptr noundef %8, ptr noundef @.str.10, i64 noundef 0, i64 noundef 8192, i64 noundef 8388608)
  %10 = load ptr, ptr %2, align 8
  %11 = getelementptr inbounds nuw %struct.PortalData, ptr %10, i32 0, i32 25
  store ptr %9, ptr %11, align 8
  %12 = load ptr, ptr %2, align 8
  %13 = getelementptr inbounds nuw %struct.PortalData, ptr %12, i32 0, i32 25
  %14 = load ptr, ptr %13, align 8
  %15 = call ptr @MemoryContextSwitchTo(ptr noundef %14)
  store ptr %15, ptr %3, align 8
  %16 = load ptr, ptr %2, align 8
  %17 = getelementptr inbounds nuw %struct.PortalData, ptr %16, i32 0, i32 16
  %18 = load i32, ptr %17, align 4
  %19 = and i32 %18, 2
  %20 = icmp ne i32 %19, 0
  %21 = load i32, ptr @work_mem, align 4
  %22 = call ptr @tuplestore_begin_heap(i1 noundef zeroext %20, i1 noundef zeroext true, i32 noundef %21)
  %23 = load ptr, ptr %2, align 8
  %24 = getelementptr inbounds nuw %struct.PortalData, ptr %23, i32 0, i32 24
  store ptr %22, ptr %24, align 8
  %25 = load ptr, ptr %3, align 8
  %26 = call ptr @MemoryContextSwitchTo(ptr noundef %25)
  call void @llvm.lifetime.end.p0(i64 8, ptr %3) #6
  ret void
}