; Function Attrs: nounwind uwtable
define dso_local void @PortalCreateHoldStore(ptr noundef captures(none) initializes((168, 184)) %0) local_unnamed_addr #0 {
  %2 = load ptr, ptr @TopPortalContext, align 8
  %3 = tail call ptr @AllocSetContextCreateInternal(ptr noundef %2, ptr noundef nonnull @.str.10, i64 noundef 0, i64 noundef 8192, i64 noundef 8388608) #8
  %4 = getelementptr inbounds nuw i8, ptr %0, i64 176
  store ptr %3, ptr %4, align 8
  %5 = load ptr, ptr @CurrentMemoryContext, align 8
  store ptr %3, ptr @CurrentMemoryContext, align 8
  %6 = getelementptr inbounds nuw i8, ptr %0, i64 124
  %7 = load i32, ptr %6, align 4
  %8 = and i32 %7, 2
  %9 = icmp ne i32 %8, 0
  %10 = load i32, ptr @work_mem, align 4
  %11 = tail call ptr @tuplestore_begin_heap(i1 noundef zeroext %9, i1 noundef zeroext true, i32 noundef %10) #8
  %12 = getelementptr inbounds nuw i8, ptr %0, i64 168
  store ptr %11, ptr %12, align 8
  store ptr %5, ptr @CurrentMemoryContext, align 8
  ret void
}